(dp0
S'shell'
p1
NsS'plot_2'
p2
NsS'plot_3'
p3
NsS'algorithm'
p4
VRK4
p5
sS'plot_1'
p6
NsS'prob_v0'
p7
F1.1
sS'prob_alpha'
p8
F0.27
sS'stop'
p9
I00
sS'prob_omega'
p10
F0.53
sS'messages'
p11
S'Starting integration.\nDone.\n'
p12
sS'prob_dt'
p13
F0.1
sS'prob_f'
p14
F0.77
s.