(dp0
Vmain
p1
NsVdwell_time
p2
F0.1
sVsave_data_filename
p3
V/export/home/dursobr/Dropbox/Pitt/pythics-all/pythics/pythics/examples/data.txt
p4
sVload_data_filename
p5
V
p6
sVdata_chart
p7
NsVvoltmeter_address
p8
g6
s.