(dp0
S'voltage_2'
p1
F2.953
sS'voltage_3'
p2
F0.106
sS'dwell_time'
p3
F0.5
sS'data_chart'
p4
NsS'voltage_4'
p5
F1.081
sS'voltmeter_address'
p6
V
p7
sS'error_dialog'
p8
NsS'voltage_1'
p9
F0.191
sS'data_filename'
p10
g7
s.