(dp0
S'magnetization_N_T'
p1
L100L
sS'magnetization_N_thermalize'
p2
L100L
sS'sa_T_F'
p3
F0.1
sS'sa_N_T'
p4
L100L
sS'metropolis_N_thermalize'
p5
L100L
sS'metropolis_T'
p6
F1.0
sS'magnetization_T_F'
p7
F2.0
sS'sa_T_0'
p8
F2.0
sS'sa_L'
p9
L10L
sS'metropolis_N'
p10
L200L
sS'magnetization_T_0'
p11
F0.1
sS'magnetization_L'
p12
L10L
sS'magnetization_N'
p13
L200L
sS'metropolis_L'
p14
L10L
s.