(dp0
Vmain
p1
NsVfile_picker
p2
V/home/bdurso/Dropbox/MSU/pythics-all/pythics/pythics/examples/data_6_3a.csv
p3
sVplot
p4
NsVfit_type
p5
Vnonlinear
p6
sVfunction
p7
Vp[0]*np.exp(-p[1]*x)
p8
sVinitial_guess
p9
V[5000.0, 0.1]
p10
sVshell
p11
NsVmessages
p12
V
p13
s.