(dp0
Vmain
p1
NsVhf_right_T
p2
F10.0
sVhf_left_T
p3
F0.0
sVstop
p4
I00
sVhf_initial_T
p5
F2.0
sVshell
p6
NsVmessages
p7
V
p8
sVplot_1
p9
NsVhf_time_steps
p10
L100000L
sVhf_N
p11
L100L
sVhf_dt
p12
F0.1
s.