(dp0
Vlaplace_Ny
p1
L30L
sVstop
p2
I00
sVmain
p3
NsVlaplace_source_1_value
p4
F1.0
sVlaplace_source_2_y
p5
L25L
sVlaplace_tolerance
p6
F0.01
sVlaplace_over_relaxation
p7
F0.5
sVlaplace_source_2_value
p8
F-1.0
sVplot_1
p9
NsVlaplace_source_1_y
p10
L5L
sVlaplace_source_2_x
p11
L10L
sVlaplace_Nx
p12
L30L
sVshell
p13
NsVlaplace_source_1_x
p14
L10L
s.