(dp0
S'laplace_source_2_value'
p1
F100.0
sS'laplace_Ny'
p2
L50L
sS'laplace_Nx'
p3
L50L
sS'laplace_source_1_value'
p4
F100.0
sS'laplace_over_relaxation'
p5
F1.8
sS'laplace_source_2_x'
p6
L25L
sS'laplace_source_2_y'
p7
L30L
sS'laplace_source_1_y'
p8
L20L
sS'laplace_source_1_x'
p9
L25L
sS'laplace_tolerance'
p10
F1e-06
s.