(dp0
Vmain
p1
NsVplot_2
p2
NsVsingle_mu
p3
F0.9
sVstop
p4
I00
sVmultiple_N_total
p5
L1L
sVsingle_N
p6
L1000L
sVsingle_x0
p7
F1.0
sVplot_1
p8
NsVmultiple_mu_initial
p9
F0.0
sVmultiple_x0
p10
F0.0
sVmultiple_N_bins
p11
L1L
sVmultiple_N_used
p12
L1L
sVshell
p13
NsVmultiple_mu_final
p14
F0.0
sVmultiple_mu_N_steps
p15
L1L
s.