(dp0
S'multiple_x0'
p1
F0.8
sS'multiple_N_total'
p2
L1000L
sS'single_x0'
p3
F0.8
sS'multiple_mu_initial'
p4
F2.5
sS'single_N'
p5
L100L
sS'single_mu'
p6
F3.0
sS'multiple_mu_N_steps'
p7
L500L
sS'multiple_mu_final'
p8
F4.0
sS'multiple_N_used'
p9
L500L
sS'multiple_N_bins'
p10
L500L
s.