(dp0
Vmain
p1
NsVplot_2
p2
NsVstop
p3
I00
sVmagnetization_L
p4
L100L
sVmagnetization_N_thermalize
p5
L1L
sVmagnetization_N_T
p6
L1L
sVmagnetization_N
p7
L100L
sVsa_T_0
p8
F1.0
sVmagnetization_T_0
p9
F0.0
sVmetropolis_N_thermalize
p10
L10L
sVplot_1
p11
NsVsa_L
p12
L100L
sVmetropolis_N
p13
L100L
sVmetropolis_T
p14
F0.0
sVsa_N_T
p15
L100L
sVmagnetization_T_F
p16
F0.0
sVmetropolis_L
p17
L100L
sVmessages
p18
V
p19
sVshell
p20
NsVsa_T_F
p21
F0.0
s.