(dp0
Vplot_1
p1
NsVprob_m
p2
L60L
sVsteps_per_update
p3
L20L
sVprob_r_zero
p4
F0.15
sVshell
p5
NsVprob_epsilon
p6
F0.5
sVprob_g
p7
F1.0
sVprob_v_max
p8
F1.0
sVprob_dt
p9
F0.002
sVprob_N_particles
p10
L16L
sValgorithm
p11
Vvelocity_Verlet
p12
s.