(dp0
S'prob_r_zero'
p1
F0.15
sS'prob_epsilon'
p2
F0.5
sS'algorithm'
p3
S'velocity_Verlet'
p4
sS'dt_per_update'
p5
F0.03
sS'prob_v_max'
p6
F1.0
sS'prob_m'
p7
L60L
sS'prob_N_particles'
p8
L16L
sS'prob_dt'
p9
F0.002
sS'prob_g'
p10
F1.0
s.