(dp0
Vw_N_tfft
p1
L100L
sVplot_3
p2
NsVmain
p3
NsVplot_4
p4
NsVplot_2
p5
NsVw_pluck
p6
F0.3
sVplot_1
p7
NsVshell
p8
NsVw_N_tfft_display
p9
L1L
sVw_N
p10
L30L
sVw_drag
p11
F0.001
sVstop
p12
I00
sVw_L
p13
F10.0
sVw_dt
p14
F0.1
sVw_monitor
p15
F0.7
sVmessages
p16
V
p17
s.